; Function Attrs: mustprogress nofree norecurse nosync nounwind willreturn memory(argmem: write) uwtable
define void @_ZN3gmx15EnergySignaller35registerTrajectorySignallerCallbackENS_15TrajectoryEventE(ptr dead_on_unwind noalias nocapture writable writeonly sret(%"class.std::optional") align 8 %0, ptr noundef nonnull align 8 dereferenceable(144) %1, i32 noundef %2) unnamed_addr #3 align 2 personality ptr @__gxx_personality_v0 {
  %4 = icmp eq i32 %2, 1
  br i1 %4, label %5, label %11

5:                                                ; preds = %3
  %6 = getelementptr inbounds i8, ptr %1, i64 120
  store i8 1, ptr %6, align 8
  %7 = getelementptr inbounds i8, ptr %0, i64 16
  %8 = getelementptr inbounds i8, ptr %0, i64 24
  %9 = getelementptr inbounds i8, ptr %0, i64 8
  store i64 0, ptr %9, align 8
  %10 = ptrtoint ptr %1 to i64
  store i64 %10, ptr %0, align 8
  store ptr @"_ZNSt17_Function_handlerIFvldEZN3gmx15EnergySignaller35registerTrajectorySignallerCallbackENS1_15TrajectoryEventEE3$_0E9_M_invokeERKSt9_Any_dataOlOd", ptr %8, align 8
  store ptr @"_ZNSt17_Function_handlerIFvldEZN3gmx15EnergySignaller35registerTrajectorySignallerCallbackENS1_15TrajectoryEventEE3$_0E10_M_managerERSt9_Any_dataRKS6_St18_Manager_operation", ptr %7, align 8
  br label %11

11:                                               ; preds = %3, %5
  %.sink = phi i8 [ 1, %5 ], [ 0, %3 ]
  %12 = getelementptr inbounds i8, ptr %0, i64 32
  store i8 %.sink, ptr %12, align 8
  ret void
}